(dp0
S'/home/kai/workspace/bir/bir_workspace/Coverage_Path_Planning/3d_models/full_structures/oil_manifold.stl'
p1
((F0.21547104187415755
F-0.43993273797668253
F0.871797806931174
F0.0
tp2
(F0.9742793923570906
F0.1571629031614732
F-0.16149144713623614
F0.0
tp3
(F-0.06596889980864767
F0.8841713679633587
F0.4624814551220834
F0.0
tp4
(F0.865877356767285
F5.368745237841638
F-114.43870962054703
F1.0
tp5
tp6
s.